; Function Attrs: mustprogress nounwind uwtable
define internal noundef zeroext i1 @_ZNSt17_Function_handlerIFviPKN4node9DataQueue3VecEmSt8functionIFvmEEEZNS0_12_GLOBAL__N_128NonIdempotentDataQueueReader4PullES5_IS8_EiPS2_mmEUliS4_mS7_E_E10_M_managerERSt9_Any_dataRKSF_St18_Manager_operation(ptr nocapture noundef nonnull align 8 dereferenceable(16) %__dest, ptr nocapture noundef nonnull readonly align 8 dereferenceable(16) %__source, i32 noundef %__op) #3 align 2 {
entry:
  %__source.val = load ptr, ptr %__source, align 8
  switch i32 %__op, label %sw.epilog [
    i32 1, label %sw.bb
    i32 0, label %sw.bb.i
    i32 3, label %sw.bb6.i
    i32 2, label %sw.bb4.i
  ]

sw.bb:                                            ; preds = %entry
  store ptr %__source.val, ptr %__dest, align 8
  br label %sw.epilog

sw.bb.i:                                          ; preds = %entry
  store ptr null, ptr %__dest, align 8
  br label %sw.epilog

sw.bb4.i:                                         ; preds = %entry
  %call.i.i.i = tail call noalias noundef nonnull dereferenceable(40) ptr @_Znwm(i64 noundef 40) #22
  %0 = load ptr, ptr %__source.val, align 8
  store ptr %0, ptr %call.i.i.i, align 8
  %1 = getelementptr inbounds i8, ptr %call.i.i.i, i64 8
  %_M_manager.i.i.i.i.i.i.i = getelementptr inbounds i8, ptr %__source.val, i64 24
  tail call void @llvm.memset.p0.i64(ptr noundef nonnull align 8 dereferenceable(32) %1, i8 0, i64 32, i1 false)
  %2 = load ptr, ptr %_M_manager.i.i.i.i.i.i.i, align 8
  %tobool.not.i.i.not.i.i.i.i.i = icmp eq ptr %2, null
  br i1 %tobool.not.i.i.not.i.i.i.i.i, label %_ZNSt14_Function_base13_Base_managerIZN4node12_GLOBAL__N_128NonIdempotentDataQueueReader4PullESt8functionIFviPKNS1_9DataQueue3VecEmS4_IFvmEEEEiPS6_mmEUliS8_mSA_E_E15_M_init_functorIRKSE_EEvRSt9_Any_dataOT_.exit.i, label %if.then.i.i.i.i.i

if.then.i.i.i.i.i:                                ; preds = %sw.bb4.i
  %3 = getelementptr inbounds i8, ptr %__source.val, i64 8
  %_M_invoker.i.i.i.i.i = getelementptr inbounds i8, ptr %call.i.i.i, i64 32
  %_M_manager.i.i.i.i.i.i = getelementptr inbounds i8, ptr %call.i.i.i, i64 24
  %call3.i.i.i.i.i = tail call noundef zeroext i1 %2(ptr noundef nonnull align 8 dereferenceable(16) %1, ptr noundef nonnull align 8 dereferenceable(16) %3, i32 noundef 2) #20
  %_M_invoker4.i.i.i.i.i = getelementptr inbounds i8, ptr %__source.val, i64 32
  %4 = load ptr, ptr %_M_invoker4.i.i.i.i.i, align 8
  store ptr %4, ptr %_M_invoker.i.i.i.i.i, align 8
  %5 = load ptr, ptr %_M_manager.i.i.i.i.i.i.i, align 8
  store ptr %5, ptr %_M_manager.i.i.i.i.i.i, align 8
  br label %_ZNSt14_Function_base13_Base_managerIZN4node12_GLOBAL__N_128NonIdempotentDataQueueReader4PullESt8functionIFviPKNS1_9DataQueue3VecEmS4_IFvmEEEEiPS6_mmEUliS8_mSA_E_E15_M_init_functorIRKSE_EEvRSt9_Any_dataOT_.exit.i

_ZNSt14_Function_base13_Base_managerIZN4node12_GLOBAL__N_128NonIdempotentDataQueueReader4PullESt8functionIFviPKNS1_9DataQueue3VecEmS4_IFvmEEEEiPS6_mmEUliS8_mSA_E_E15_M_init_functorIRKSE_EEvRSt9_Any_dataOT_.exit.i: ; preds = %if.then.i.i.i.i.i, %sw.bb4.i
  store ptr %call.i.i.i, ptr %__dest, align 8
  br label %sw.epilog

sw.bb6.i:                                         ; preds = %entry
  %__dest.val.i = load ptr, ptr %__dest, align 8
  %isnull.i.i = icmp eq ptr %__dest.val.i, null
  br i1 %isnull.i.i, label %sw.epilog, label %delete.notnull.i.i

delete.notnull.i.i:                               ; preds = %sw.bb6.i
  %_M_manager.i.i.i.i.i = getelementptr inbounds i8, ptr %__dest.val.i, i64 24
  %6 = load ptr, ptr %_M_manager.i.i.i.i.i, align 8
  %tobool.not.i.i.i.i.i = icmp eq ptr %6, null
  br i1 %tobool.not.i.i.i.i.i, label %_ZZN4node12_GLOBAL__N_128NonIdempotentDataQueueReader4PullESt8functionIFviPKNS_9DataQueue3VecEmS2_IFvmEEEEiPS4_mmENUliS6_mS8_E_D2Ev.exit.i.i, label %if.then.i.i.i.i5.i

if.then.i.i.i.i5.i:                               ; preds = %delete.notnull.i.i
  %7 = getelementptr inbounds i8, ptr %__dest.val.i, i64 8
  %call.i.i.i.i.i = tail call noundef zeroext i1 %6(ptr noundef nonnull align 8 dereferenceable(16) %7, ptr noundef nonnull align 8 dereferenceable(16) %7, i32 noundef 3) #20
  br label %_ZZN4node12_GLOBAL__N_128NonIdempotentDataQueueReader4PullESt8functionIFviPKNS_9DataQueue3VecEmS2_IFvmEEEEiPS4_mmENUliS6_mS8_E_D2Ev.exit.i.i

_ZZN4node12_GLOBAL__N_128NonIdempotentDataQueueReader4PullESt8functionIFviPKNS_9DataQueue3VecEmS2_IFvmEEEEiPS4_mmENUliS6_mS8_E_D2Ev.exit.i.i: ; preds = %if.then.i.i.i.i5.i, %delete.notnull.i.i
  tail call void @_ZdlPv(ptr noundef nonnull %__dest.val.i) #24
  br label %sw.epilog

sw.epilog:                                        ; preds = %entry, %_ZZN4node12_GLOBAL__N_128NonIdempotentDataQueueReader4PullESt8functionIFviPKNS_9DataQueue3VecEmS2_IFvmEEEEiPS4_mmENUliS6_mS8_E_D2Ev.exit.i.i, %sw.bb6.i, %_ZNSt14_Function_base13_Base_managerIZN4node12_GLOBAL__N_128NonIdempotentDataQueueReader4PullESt8functionIFviPKNS1_9DataQueue3VecEmS4_IFvmEEEEiPS6_mmEUliS8_mSA_E_E15_M_init_functorIRKSE_EEvRSt9_Any_dataOT_.exit.i, %sw.bb.i, %sw.bb
  ret i1 false
}